target datalayout = "e-m:e-p270:32:32-p271:32:32-p272:64:64-i64:64-i128:128-f80:128-n8:16:32:64-S128"
target triple = "x86_64-pc-linux-gnu"

; Function Attrs: nounwind uwtable
define internal void @stbir__decode_uint8_srgb(ptr noundef %0, i32 noundef %1, ptr noundef %2) #0 {
  %4 = alloca ptr, align 8
  %5 = alloca i32, align 4
  %6 = alloca ptr, align 8
  %7 = alloca ptr, align 8
  %8 = alloca ptr, align 8
  %9 = alloca ptr, align 8
  store ptr %0, ptr %4, align 8
  store i32 %1, ptr %5, align 4
  store ptr %2, ptr %6, align 8
  call void @llvm.lifetime.start.p0(i64 8, ptr %7) #19
  %10 = load ptr, ptr %4, align 8
  store ptr %10, ptr %7, align 8
  call void @llvm.lifetime.start.p0(i64 8, ptr %8) #19
  %11 = load ptr, ptr %7, align 8
  %12 = load i32, ptr %5, align 4
  %13 = sext i32 %12 to i64
  %14 = getelementptr inbounds float, ptr %11, i64 %13
  store ptr %14, ptr %8, align 8
  call void @llvm.lifetime.start.p0(i64 8, ptr %9) #19
  %15 = load ptr, ptr %6, align 8
  store ptr %15, ptr %9, align 8
  %16 = load ptr, ptr %7, align 8
  %17 = getelementptr inbounds float, ptr %16, i64 4
  store ptr %17, ptr %7, align 8
  br label %18

18:                                               ; preds = %22, %3
  %19 = load ptr, ptr %7, align 8
  %20 = load ptr, ptr %8, align 8
  %21 = icmp ule ptr %19, %20
  br i1 %21, label %22, label %59

22:                                               ; preds = %18
  %23 = load ptr, ptr %9, align 8
  %24 = getelementptr inbounds i8, ptr %23, i64 0
  %25 = load i8, ptr %24, align 1
  %26 = zext i8 %25 to i64
  %27 = getelementptr inbounds nuw [256 x float], ptr @stbir__srgb_uchar_to_linear_float, i64 0, i64 %26
  %28 = load float, ptr %27, align 4
  %29 = load ptr, ptr %7, align 8
  %30 = getelementptr inbounds float, ptr %29, i64 -4
  store float %28, ptr %30, align 4
  %31 = load ptr, ptr %9, align 8
  %32 = getelementptr inbounds i8, ptr %31, i64 1
  %33 = load i8, ptr %32, align 1
  %34 = zext i8 %33 to i64
  %35 = getelementptr inbounds nuw [256 x float], ptr @stbir__srgb_uchar_to_linear_float, i64 0, i64 %34
  %36 = load float, ptr %35, align 4
  %37 = load ptr, ptr %7, align 8
  %38 = getelementptr inbounds float, ptr %37, i64 -3
  store float %36, ptr %38, align 4
  %39 = load ptr, ptr %9, align 8
  %40 = getelementptr inbounds i8, ptr %39, i64 2
  %41 = load i8, ptr %40, align 1
  %42 = zext i8 %41 to i64
  %43 = getelementptr inbounds nuw [256 x float], ptr @stbir__srgb_uchar_to_linear_float, i64 0, i64 %42
  %44 = load float, ptr %43, align 4
  %45 = load ptr, ptr %7, align 8
  %46 = getelementptr inbounds float, ptr %45, i64 -2
  store float %44, ptr %46, align 4
  %47 = load ptr, ptr %9, align 8
  %48 = getelementptr inbounds i8, ptr %47, i64 3
  %49 = load i8, ptr %48, align 1
  %50 = zext i8 %49 to i64
  %51 = getelementptr inbounds nuw [256 x float], ptr @stbir__srgb_uchar_to_linear_float, i64 0, i64 %50
  %52 = load float, ptr %51, align 4
  %53 = load ptr, ptr %7, align 8
  %54 = getelementptr inbounds float, ptr %53, i64 -1
  store float %52, ptr %54, align 4
  %55 = load ptr, ptr %7, align 8
  %56 = getelementptr inbounds float, ptr %55, i64 4
  store ptr %56, ptr %7, align 8
  %57 = load ptr, ptr %9, align 8
  %58 = getelementptr inbounds i8, ptr %57, i64 4
  store ptr %58, ptr %9, align 8
  br label %18

59:                                               ; preds = %18
  %60 = load ptr, ptr %7, align 8
  %61 = getelementptr inbounds float, ptr %60, i64 -4
  store ptr %61, ptr %7, align 8
  br label %62

62:                                               ; preds = %66, %59
  %63 = load ptr, ptr %7, align 8
  %64 = load ptr, ptr %8, align 8
  %65 = icmp ult ptr %63, %64
  br i1 %65, label %66, label %80

66:                                               ; preds = %62
  %67 = load ptr, ptr %7, align 8
  call void asm sideeffect "", "r,~{dirflag},~{fpsr},~{flags}"(ptr %67) #19, !srcloc !5
  %68 = load ptr, ptr %9, align 8
  %69 = getelementptr inbounds i8, ptr %68, i64 0
  %70 = load i8, ptr %69, align 1
  %71 = zext i8 %70 to i64
  %72 = getelementptr inbounds nuw [256 x float], ptr @stbir__srgb_uchar_to_linear_float, i64 0, i64 %71
  %73 = load float, ptr %72, align 4
  %74 = load ptr, ptr %7, align 8
  %75 = getelementptr inbounds float, ptr %74, i64 0
  store float %73, ptr %75, align 4
  %76 = load ptr, ptr %7, align 8
  %77 = getelementptr inbounds float, ptr %76, i64 1
  store ptr %77, ptr %7, align 8
  %78 = load ptr, ptr %9, align 8
  %79 = getelementptr inbounds i8, ptr %78, i64 1
  store ptr %79, ptr %9, align 8
  br label %62, !llvm.loop !6

80:                                               ; preds = %62
  call void @llvm.lifetime.end.p0(i64 8, ptr %9) #19
  call void @llvm.lifetime.end.p0(i64 8, ptr %8) #19
  call void @llvm.lifetime.end.p0(i64 8, ptr %7) #19
  ret void
}